; ModuleID = '28/884.c'
source_filename = "28/884.c"
target datalayout = "e-m:e-p270:32:32-p271:32:32-p272:64:64-i64:64-f80:128-n8:16:32:64-S128"
target triple = "x86_64-pc-linux-gnu"

@.str = private unnamed_addr constant [4 x i8] c"%d,\00", align 1
@.str.1 = private unnamed_addr constant [4 x i8] c"%d\0A\00", align 1

; Function Attrs: noinline nounwind uwtable
define dso_local i32 @main() #0 {
  %1 = alloca i32, align 4
  %2 = alloca [10000 x i8], align 16
  %3 = alloca [300 x [30 x i8]], align 16
  %4 = alloca [300 x i32], align 16
  %5 = alloca i32, align 4
  %6 = alloca i32, align 4
  %7 = alloca i32, align 4
  %8 = alloca i32, align 4
  %9 = alloca i32, align 4
  %10 = alloca i32, align 4
  store i32 0, i32* %1, align 4
  %11 = getelementptr inbounds [10000 x i8], [10000 x i8]* %2, i64 0, i64 0
  %12 = call i32 (i8*, ...) bitcast (i32 (...)* @gets to i32 (i8*, ...)*)(i8* %11)
  %13 = getelementptr inbounds [10000 x i8], [10000 x i8]* %2, i64 0, i64 0
  %14 = call i64 @strlen(i8* %13) #3
  %15 = trunc i64 %14 to i32
  store i32 %15, i32* %5, align 4
  store i32 0, i32* %7, align 4
  store i32 0, i32* %8, align 4
  store i32 0, i32* %10, align 4
  store i32 0, i32* %6, align 4
  br label %16

16:                                               ; preds = %72, %0
  %17 = load i32, i32* %6, align 4
  %18 = load i32, i32* %5, align 4
  %19 = add nsw i32 %18, 1
  %20 = icmp slt i32 %17, %19
  br i1 %20, label %21, label %75

21:                                               ; preds = %16
  %22 = load i32, i32* %6, align 4
  %23 = sext i32 %22 to i64
  %24 = getelementptr inbounds [10000 x i8], [10000 x i8]* %2, i64 0, i64 %23
  %25 = load i8, i8* %24, align 1
  %26 = sext i8 %25 to i32
  %27 = icmp ne i32 %26, 32
  br i1 %27, label %28, label %48

28:                                               ; preds = %21
  %29 = load i32, i32* %6, align 4
  %30 = sext i32 %29 to i64
  %31 = getelementptr inbounds [10000 x i8], [10000 x i8]* %2, i64 0, i64 %30
  %32 = load i8, i8* %31, align 1
  %33 = sext i8 %32 to i32
  %34 = icmp ne i32 %33, 0
  br i1 %34, label %35, label %48

35:                                               ; preds = %28
  %36 = load i32, i32* %6, align 4
  %37 = sext i32 %36 to i64
  %38 = getelementptr inbounds [10000 x i8], [10000 x i8]* %2, i64 0, i64 %37
  %39 = load i8, i8* %38, align 1
  %40 = load i32, i32* %7, align 4
  %41 = sext i32 %40 to i64
  %42 = getelementptr inbounds [300 x [30 x i8]], [300 x [30 x i8]]* %3, i64 0, i64 %41
  %43 = load i32, i32* %8, align 4
  %44 = sext i32 %43 to i64
  %45 = getelementptr inbounds [30 x i8], [30 x i8]* %42, i64 0, i64 %44
  store i8 %39, i8* %45, align 1
  %46 = load i32, i32* %8, align 4
  %47 = add nsw i32 %46, 1
  store i32 %47, i32* %8, align 4
  br label %48

48:                                               ; preds = %35, %28, %21
  %49 = load i32, i32* %6, align 4
  %50 = sext i32 %49 to i64
  %51 = getelementptr inbounds [10000 x i8], [10000 x i8]* %2, i64 0, i64 %50
  %52 = load i8, i8* %51, align 1
  %53 = sext i8 %52 to i32
  %54 = icmp eq i32 %53, 32
  br i1 %54, label %62, label %55

55:                                               ; preds = %48
  %56 = load i32, i32* %6, align 4
  %57 = sext i32 %56 to i64
  %58 = getelementptr inbounds [10000 x i8], [10000 x i8]* %2, i64 0, i64 %57
  %59 = load i8, i8* %58, align 1
  %60 = sext i8 %59 to i32
  %61 = icmp eq i32 %60, 0
  br i1 %61, label %62, label %71

62:                                               ; preds = %55, %48
  %63 = load i32, i32* %7, align 4
  %64 = sext i32 %63 to i64
  %65 = getelementptr inbounds [300 x [30 x i8]], [300 x [30 x i8]]* %3, i64 0, i64 %64
  %66 = load i32, i32* %8, align 4
  %67 = sext i32 %66 to i64
  %68 = getelementptr inbounds [30 x i8], [30 x i8]* %65, i64 0, i64 %67
  store i8 0, i8* %68, align 1
  %69 = load i32, i32* %7, align 4
  %70 = add nsw i32 %69, 1
  store i32 %70, i32* %7, align 4
  store i32 0, i32* %8, align 4
  br label %71

71:                                               ; preds = %62, %55
  br label %72

72:                                               ; preds = %71
  %73 = load i32, i32* %6, align 4
  %74 = add nsw i32 %73, 1
  store i32 %74, i32* %6, align 4
  br label %16

75:                                               ; preds = %16
  store i32 0, i32* %9, align 4
  br label %76

76:                                               ; preds = %105, %75
  %77 = load i32, i32* %9, align 4
  %78 = load i32, i32* %7, align 4
  %79 = sub nsw i32 %78, 1
  %80 = icmp slt i32 %77, %79
  br i1 %80, label %81, label %108

81:                                               ; preds = %76
  %82 = load i32, i32* %9, align 4
  %83 = sext i32 %82 to i64
  %84 = getelementptr inbounds [300 x [30 x i8]], [300 x [30 x i8]]* %3, i64 0, i64 %83
  %85 = getelementptr inbounds [30 x i8], [30 x i8]* %84, i64 0, i64 0
  %86 = call i64 @strlen(i8* %85) #3
  %87 = trunc i64 %86 to i32
  %88 = load i32, i32* %10, align 4
  %89 = sext i32 %88 to i64
  %90 = getelementptr inbounds [300 x i32], [300 x i32]* %4, i64 0, i64 %89
  store i32 %87, i32* %90, align 4
  %91 = load i32, i32* %10, align 4
  %92 = sext i32 %91 to i64
  %93 = getelementptr inbounds [300 x i32], [300 x i32]* %4, i64 0, i64 %92
  %94 = load i32, i32* %93, align 4
  %95 = icmp ne i32 %94, 0
  br i1 %95, label %96, label %102

96:                                               ; preds = %81
  %97 = load i32, i32* %10, align 4
  %98 = sext i32 %97 to i64
  %99 = getelementptr inbounds [300 x i32], [300 x i32]* %4, i64 0, i64 %98
  %100 = load i32, i32* %99, align 4
  %101 = call i32 (i8*, ...) @printf(i8* getelementptr inbounds ([4 x i8], [4 x i8]* @.str, i64 0, i64 0), i32 %100)
  br label %102

102:                                              ; preds = %96, %81
  %103 = load i32, i32* %10, align 4
  %104 = add nsw i32 %103, 1
  store i32 %104, i32* %10, align 4
  br label %105

105:                                              ; preds = %102
  %106 = load i32, i32* %9, align 4
  %107 = add nsw i32 %106, 1
  store i32 %107, i32* %9, align 4
  br label %76

108:                                              ; preds = %76
  %109 = load i32, i32* %7, align 4
  %110 = sub nsw i32 %109, 1
  %111 = sext i32 %110 to i64
  %112 = getelementptr inbounds [300 x [30 x i8]], [300 x [30 x i8]]* %3, i64 0, i64 %111
  %113 = getelementptr inbounds [30 x i8], [30 x i8]* %112, i64 0, i64 0
  %114 = call i64 @strlen(i8* %113) #3
  %115 = trunc i64 %114 to i32
  %116 = load i32, i32* %7, align 4
  %117 = sub nsw i32 %116, 1
  %118 = sext i32 %117 to i64
  %119 = getelementptr inbounds [300 x i32], [300 x i32]* %4, i64 0, i64 %118
  store i32 %115, i32* %119, align 4
  %120 = load i32, i32* %7, align 4
  %121 = sub nsw i32 %120, 1
  %122 = sext i32 %121 to i64
  %123 = getelementptr inbounds [300 x i32], [300 x i32]* %4, i64 0, i64 %122
  %124 = load i32, i32* %123, align 4
  %125 = call i32 (i8*, ...) @printf(i8* getelementptr inbounds ([4 x i8], [4 x i8]* @.str.1, i64 0, i64 0), i32 %124)
  ret i32 0
}

declare dso_local i32 @gets(...) #1

; Function Attrs: nounwind readonly
declare dso_local i64 @strlen(i8*) #2

declare dso_local i32 @printf(i8*, ...) #1


!llvm.module.flags = !{!0}
!llvm.ident = !{!1}

!0 = !{i32 1, !"wchar_size", i32 4}
!1 = !{!"clang version 10.0.0-4ubuntu1 "}
